target datalayout = "e-m:e-p270:32:32-p271:32:32-p272:64:64-i64:64-i128:128-f80:128-n8:16:32:64-S128"
target triple = "x86_64-pc-linux-gnu"

%"class.clang::ASTDeclReader" = type <{ ptr, %"class.clang::ASTDeclMerger", ptr, %"struct.clang::ASTReader::RecordLocation", %"class.clang::GlobalDeclID", %"class.clang::SourceLocation", [4 x i8], i64, i32, [4 x i8], %"class.clang::GlobalDeclID", ptr, i8, [7 x i8] }>
%"class.clang::ASTDeclMerger" = type { ptr }
%"struct.clang::ASTReader::RecordLocation" = type { ptr, i64 }
%"class.clang::SourceLocation" = type { i32 }
%"class.clang::GlobalDeclID" = type { %"class.clang::DeclIDBase" }
%"class.clang::DeclIDBase" = type { i64 }
%"class.llvm::SmallVectorImpl" = type { %"class.llvm::SmallVectorTemplateBase" }
%"class.llvm::SmallVectorTemplateBase" = type { %"class.llvm::SmallVectorTemplateCommon" }
%"class.llvm::SmallVectorTemplateCommon" = type { %"class.llvm::SmallVectorBase" }
%"class.llvm::SmallVectorBase" = type { ptr, i32, i32 }
%"class.llvm::SmallVector.44" = type { %"class.llvm::SmallVectorImpl", %"struct.llvm::SmallVectorStorage.45" }
%"struct.llvm::SmallVectorStorage.45" = type { [512 x i8] }
%"class.clang::DeclaratorDecl.base" = type <{ %"class.clang::ValueDecl", %"class.llvm::PointerUnion.835", %"class.clang::SourceLocation" }>
%"class.clang::ValueDecl" = type { %"class.clang::NamedDecl", %"class.clang::QualType" }
%"class.clang::NamedDecl" = type { %"class.clang::Decl.base", %"class.clang::DeclarationName" }
%"class.clang::Decl.base" = type <{ ptr, %"class.llvm::PointerIntPair.829", %"class.llvm::PointerUnion", %"class.clang::SourceLocation", i32, i8 }>
%"class.llvm::PointerIntPair.829" = type { %"struct.llvm::detail::PunnedPointer.830" }
%"struct.llvm::detail::PunnedPointer.830" = type { [8 x i8] }
%"class.llvm::PointerUnion" = type { %"class.llvm::pointer_union_detail::PointerUnionMembers" }
%"class.llvm::pointer_union_detail::PointerUnionMembers" = type { %"class.llvm::pointer_union_detail::PointerUnionMembers.831" }
%"class.llvm::pointer_union_detail::PointerUnionMembers.831" = type { %"class.llvm::pointer_union_detail::PointerUnionMembers.832" }
%"class.llvm::pointer_union_detail::PointerUnionMembers.832" = type { %"class.llvm::PointerIntPair.833" }
%"class.llvm::PointerIntPair.833" = type { %"struct.llvm::detail::PunnedPointer.834" }
%"struct.llvm::detail::PunnedPointer.834" = type { [8 x i8] }
%"class.clang::DeclarationName" = type { i64 }
%"class.clang::QualType" = type { %"class.llvm::PointerIntPair.596" }
%"class.llvm::PointerIntPair.596" = type { %"struct.llvm::detail::PunnedPointer.597" }
%"struct.llvm::detail::PunnedPointer.597" = type { [8 x i8] }
%"class.llvm::PointerUnion.835" = type { %"class.llvm::pointer_union_detail::PointerUnionMembers.836" }
%"class.llvm::pointer_union_detail::PointerUnionMembers.836" = type { %"class.llvm::pointer_union_detail::PointerUnionMembers.837" }
%"class.llvm::pointer_union_detail::PointerUnionMembers.837" = type { %"class.llvm::pointer_union_detail::PointerUnionMembers.838" }
%"class.llvm::pointer_union_detail::PointerUnionMembers.838" = type { %"class.llvm::PointerIntPair.839" }
%"class.llvm::PointerIntPair.839" = type { %"struct.llvm::detail::PunnedPointer.834" }
%"class.clang::ASTRecordReader" = type { %"class.clang::serialization::DataStreamBasicReader", ptr, ptr, i32, %"class.llvm::SmallVector.44" }
%"class.clang::serialization::DataStreamBasicReader" = type { %"class.clang::serialization::BasicReaderBase" }
%"class.clang::serialization::BasicReaderBase" = type { ptr }
%"class.clang::MSPropertyDecl" = type { %"class.clang::DeclaratorDecl.base", ptr, ptr }

; Function Attrs: mustprogress nounwind uwtable
define linkonce_odr hidden noundef ptr @_ZNK4llvm25SmallVectorTemplateCommonImvE5beginEv(ptr noundef nonnull align 8 dereferenceable(16) %0) #0 comdat align 2 {
  %2 = alloca ptr, align 8
  store ptr %0, ptr %2, align 8
  %3 = load ptr, ptr %2, align 8
  %4 = getelementptr inbounds nuw %"class.llvm::SmallVectorBase", ptr %3, i32 0, i32 0
  %5 = load ptr, ptr %4, align 8
  ret ptr %5
}

; Function Attrs: mustprogress nounwind uwtable
define linkonce_odr hidden noundef nonnull align 8 dereferenceable(8) ptr @_ZNK4llvm25SmallVectorTemplateCommonImvEixEm(ptr noundef nonnull align 8 dereferenceable(16) %0, i64 noundef %1) #0 comdat align 2 {
  %3 = alloca ptr, align 8
  %4 = alloca i64, align 8
  store ptr %0, ptr %3, align 8
  store i64 %1, ptr %4, align 8
  %5 = load ptr, ptr %3, align 8
  %6 = call noundef ptr @_ZNK4llvm25SmallVectorTemplateCommonImvE5beginEv(ptr noundef nonnull align 8 dereferenceable(16) %5)
  %7 = load i64, ptr %4, align 8
  %8 = getelementptr inbounds i64, ptr %6, i64 %7
  ret ptr %8
}

; Function Attrs: mustprogress nounwind uwtable
define linkonce_odr hidden noundef ptr @_ZN5clang9ASTReader14readIdentifierERNS_13serialization10ModuleFileERKN4llvm11SmallVectorImLj64EEERj(ptr noundef nonnull align 8 dereferenceable(15968) %0, ptr noundef nonnull align 8 dereferenceable(3464) %1, ptr noundef nonnull align 8 dereferenceable(528) %2, ptr noundef nonnull align 4 dereferenceable(4) %3) #0 comdat align 2 {
  %5 = alloca ptr, align 8
  %6 = alloca ptr, align 8
  %7 = alloca ptr, align 8
  %8 = alloca ptr, align 8
  store ptr %0, ptr %5, align 8
  store ptr %1, ptr %6, align 8
  store ptr %2, ptr %7, align 8
  store ptr %3, ptr %8, align 8
  %9 = load ptr, ptr %5, align 8
  %10 = load ptr, ptr %6, align 8
  %11 = load ptr, ptr %7, align 8
  %12 = load ptr, ptr %8, align 8
  %13 = load i32, ptr %12, align 4
  %14 = add i32 %13, 1
  store i32 %14, ptr %12, align 4
  %15 = zext i32 %13 to i64
  %16 = call noundef nonnull align 8 dereferenceable(8) ptr @_ZNK4llvm25SmallVectorTemplateCommonImvEixEm(ptr noundef nonnull align 8 dereferenceable(16) %11, i64 noundef %15)
  %17 = load i64, ptr %16, align 8
  %18 = call noundef i64 @_ZN5clang9ASTReader21getGlobalIdentifierIDERNS_13serialization10ModuleFileEm(ptr noundef nonnull align 8 dereferenceable(15968) %9, ptr noundef nonnull align 8 dereferenceable(3464) %10, i64 noundef %17)
  %19 = call noundef ptr @_ZN5clang9ASTReader20DecodeIdentifierInfoEm(ptr noundef nonnull align 8 dereferenceable(15968) %9, i64 noundef %18)
  ret ptr %19
}

; Function Attrs: mustprogress nounwind uwtable
define linkonce_odr hidden noundef ptr @_ZN5clang15ASTRecordReader14readIdentifierEv(ptr noundef nonnull align 8 dereferenceable(560) %0) #0 comdat align 2 {
  %2 = alloca ptr, align 8
  store ptr %0, ptr %2, align 8
  %3 = load ptr, ptr %2, align 8
  %4 = getelementptr inbounds nuw %"class.clang::ASTRecordReader", ptr %3, i32 0, i32 1
  %5 = load ptr, ptr %4, align 8
  %6 = getelementptr inbounds nuw %"class.clang::ASTRecordReader", ptr %3, i32 0, i32 2
  %7 = load ptr, ptr %6, align 8
  %8 = getelementptr inbounds nuw %"class.clang::ASTRecordReader", ptr %3, i32 0, i32 4
  %9 = getelementptr inbounds nuw %"class.clang::ASTRecordReader", ptr %3, i32 0, i32 3
  %10 = call noundef ptr @_ZN5clang9ASTReader14readIdentifierERNS_13serialization10ModuleFileERKN4llvm11SmallVectorImLj64EEERj(ptr noundef nonnull align 8 dereferenceable(15968) %5, ptr noundef nonnull align 8 dereferenceable(3464) %7, ptr noundef nonnull align 8 dereferenceable(528) %8, ptr noundef nonnull align 4 dereferenceable(4) %9)
  ret ptr %10
}

; Function Attrs: mustprogress nounwind uwtable
define dso_local void @_ZN5clang13ASTDeclReader19VisitMSPropertyDeclEPNS_14MSPropertyDeclE(ptr noundef nonnull align 8 dereferenceable(89) %0, ptr noundef %1) #0 align 2 {
  %3 = alloca ptr, align 8
  %4 = alloca ptr, align 8
  store ptr %0, ptr %3, align 8
  store ptr %1, ptr %4, align 8
  %5 = load ptr, ptr %3, align 8
  %6 = load ptr, ptr %4, align 8
  call void @_ZN5clang13ASTDeclReader19VisitDeclaratorDeclEPNS_14DeclaratorDeclE(ptr noundef nonnull align 8 dereferenceable(89) %5, ptr noundef %6)
  %7 = getelementptr inbounds nuw %"class.clang::ASTDeclReader", ptr %5, i32 0, i32 2
  %8 = load ptr, ptr %7, align 8
  %9 = call noundef ptr @_ZN5clang15ASTRecordReader14readIdentifierEv(ptr noundef nonnull align 8 dereferenceable(560) %8)
  %10 = load ptr, ptr %4, align 8
  %11 = getelementptr inbounds nuw %"class.clang::MSPropertyDecl", ptr %10, i32 0, i32 1
  store ptr %9, ptr %11, align 8
  %12 = getelementptr inbounds nuw %"class.clang::ASTDeclReader", ptr %5, i32 0, i32 2
  %13 = load ptr, ptr %12, align 8
  %14 = call noundef ptr @_ZN5clang15ASTRecordReader14readIdentifierEv(ptr noundef nonnull align 8 dereferenceable(560) %13)
  %15 = load ptr, ptr %4, align 8
  %16 = getelementptr inbounds nuw %"class.clang::MSPropertyDecl", ptr %15, i32 0, i32 2
  store ptr %14, ptr %16, align 8
  ret void
}