; Function Attrs: mustprogress nounwind uwtable
define dso_local void @_ZN5clang13ASTDeclReader19VisitMSPropertyDeclEPNS_14MSPropertyDeclE(ptr nocapture noundef nonnull align 8 dereferenceable(89) %0, ptr noundef %1) local_unnamed_addr #1 align 2 {
  tail call void @_ZN5clang13ASTDeclReader19VisitDeclaratorDeclEPNS_14DeclaratorDeclE(ptr noundef nonnull align 8 dereferenceable(89) %0, ptr noundef %1)
  %3 = getelementptr inbounds nuw i8, ptr %0, i64 16
  %4 = load ptr, ptr %3, align 8
  %5 = getelementptr inbounds nuw i8, ptr %4, i64 8
  %6 = load ptr, ptr %5, align 8
  %7 = getelementptr inbounds nuw i8, ptr %4, i64 16
  %8 = load ptr, ptr %7, align 8
  %9 = getelementptr inbounds nuw i8, ptr %4, i64 32
  %10 = getelementptr inbounds nuw i8, ptr %4, i64 24
  %11 = load i32, ptr %10, align 4
  %12 = add i32 %11, 1
  store i32 %12, ptr %10, align 4
  %13 = zext i32 %11 to i64
  %14 = load ptr, ptr %9, align 8
  %15 = getelementptr inbounds i64, ptr %14, i64 %13
  %16 = load i64, ptr %15, align 8
  %17 = tail call noundef i64 @_ZN5clang9ASTReader21getGlobalIdentifierIDERNS_13serialization10ModuleFileEm(ptr noundef nonnull align 8 dereferenceable(15968) %6, ptr noundef nonnull align 8 dereferenceable(3464) %8, i64 noundef %16) #26
  %18 = tail call noundef ptr @_ZN5clang9ASTReader20DecodeIdentifierInfoEm(ptr noundef nonnull align 8 dereferenceable(15968) %6, i64 noundef %17) #26
  %19 = getelementptr inbounds nuw i8, ptr %1, i64 72
  store ptr %18, ptr %19, align 8
  %20 = load ptr, ptr %3, align 8
  %21 = getelementptr inbounds nuw i8, ptr %20, i64 8
  %22 = load ptr, ptr %21, align 8
  %23 = getelementptr inbounds nuw i8, ptr %20, i64 16
  %24 = load ptr, ptr %23, align 8
  %25 = getelementptr inbounds nuw i8, ptr %20, i64 32
  %26 = getelementptr inbounds nuw i8, ptr %20, i64 24
  %27 = load i32, ptr %26, align 4
  %28 = add i32 %27, 1
  store i32 %28, ptr %26, align 4
  %29 = zext i32 %27 to i64
  %30 = load ptr, ptr %25, align 8
  %31 = getelementptr inbounds i64, ptr %30, i64 %29
  %32 = load i64, ptr %31, align 8
  %33 = tail call noundef i64 @_ZN5clang9ASTReader21getGlobalIdentifierIDERNS_13serialization10ModuleFileEm(ptr noundef nonnull align 8 dereferenceable(15968) %22, ptr noundef nonnull align 8 dereferenceable(3464) %24, i64 noundef %32) #26
  %34 = tail call noundef ptr @_ZN5clang9ASTReader20DecodeIdentifierInfoEm(ptr noundef nonnull align 8 dereferenceable(15968) %22, i64 noundef %33) #26
  %35 = getelementptr inbounds nuw i8, ptr %1, i64 80
  store ptr %34, ptr %35, align 8
  ret void
}